(lp1
(lp2
I86
aI4
aI1
aI1
aa(lp3
I72
aI0
aI1
aI0
aa(lp4
I65
aI7
aI3
aI3
aa(lp5
I76
aI13
aI3
aI1
aa(lp6
I63
aI3
aI3
aI6
aa(lp7
I44
aI3
aI2
aI0
aa(lp8
I27
aI0
aI0
aI0
aa(lp9
I66
aI5
aI2
aI1
aa(lp10
I42
aI4
aI2
aI4
aa(lp11
I31
aI6
aI1
aI2
aa(lp12
I42
aI2
aI0
aI0
aa(lp13
I43
aI10
aI5
aI3
aa(lp14
I32
aI1
aI2
aI1
aa(lp15
I35
aI8
aI4
aI5
aa(lp16
I25
aI4
aI2
aI4
aa(lp17
I34
aI2
aI2
aI2
aa(lp18
I34
aI1
aI2
aI2
aa(lp19
I50
aI3
aI3
aI3
aa(lp20
I37
aI3
aI4
aI4
aa(lp21
I35
aI3
aI5
aI7
aa(lp22
I38
aI4
aI4
aI5
aa(lp23
I27
aI0
aI1
aI2
aa(lp24
I49
aI2
aI2
aI2
aa(lp25
I32
aI3
aI1
aI1
aa(lp26
I36
aI5
aI7
aI10
aa(lp27
I67
aI19
aI1
aI2
aa(lp28
I38
aI6
aI5
aI5
aa(lp29
I29
aI6
aI4
aI3
aa(lp30
I26
aI1
aI1
aI2
aa(lp31
I24
aI0
aI0
aI0
aa(lp32
I19
aI1
aI2
aI2
aa(lp33
I63
aI0
aI1
aI1
aa(lp34
I31
aI0
aI1
aI1
aa(lp35
I56
aI17
aI17
aI18
aa(lp36
I25
aI0
aI1
aI2
aa(lp37
I50
aI10
aI1
aI2
aa(lp38
I35
aI0
aI0
aI0
aa(lp39
I40
aI1
aI2
aI0
aa(lp40
I55
aI6
aI1
aI1
aa(lp41
I28
aI9
aI6
aI9
aa(lp42
I19
aI1
aI5
aI10
aa(lp43
I33
aI1
aI2
aI1
aa(lp44
I83
aI1
aI0
aI0
aa(lp45
I30
aI1
aI1
aI1
aa(lp46
I32
aI0
aI1
aI2
aa(lp47
I-1
aI-1
aI-1
aI-1
aa(lp48
I53
aI4
aI5
aI5
aa(lp49
I25
aI1
aI5
aI9
aa(lp50
I25
aI1
aI1
aI0
aa(lp51
I39
aI2
aI0
aI0
aa(lp52
I28
aI2
aI6
aI10
aa(lp53
I26
aI1
aI3
aI3
aa(lp54
I24
aI1
aI0
aI0
aa(lp55
I33
aI5
aI2
aI4
aa(lp56
I55
aI5
aI6
aI8
aa(lp57
I29
aI1
aI1
aI2
aa(lp58
I58
aI16
aI8
aI9
aa(lp59
I20
aI0
aI1
aI2
aa(lp60
I27
aI4
aI6
aI6
aa(lp61
I32
aI4
aI1
aI1
aa(lp62
I78
aI4
aI0
aI0
aa(lp63
I35
aI2
aI1
aI0
aa(lp64
I48
aI6
aI2
aI2
aa(lp65
I45
aI8
aI3
aI2
aa(lp66
I41
aI0
aI2
aI4
aa(lp67
I32
aI1
aI1
aI2
aa(lp68
I22
aI2
aI1
aI1
aa(lp69
I40
aI1
aI0
aI0
aa(lp70
I50
aI2
aI2
aI1
aa(lp71
I35
aI1
aI1
aI1
aa(lp72
I20
aI3
aI1
aI2
aa(lp73
I50
aI2
aI0
aI0
aa(lp74
I22
aI1
aI0
aI0
aa(lp75
I46
aI1
aI3
aI3
aa(lp76
I34
aI3
aI2
aI4
aa(lp77
I30
aI0
aI0
aI0
aa(lp78
I40
aI6
aI2
aI1
aa(lp79
I23
aI0
aI2
aI2
aa(lp80
I73
aI0
aI0
aI0
aa(lp81
I47
aI2
aI3
aI2
aa(lp82
I49
aI3
aI2
aI3
aa(lp83
I58
aI4
aI1
aI0
aa(lp84
I39
aI3
aI2
aI3
aa(lp85
I24
aI0
aI1
aI2
aa(lp86
I49
aI4
aI3
aI2
aa(lp87
I45
aI2
aI2
aI3
aa(lp88
I32
aI5
aI3
aI4
aa(lp89
I43
aI3
aI2
aI2
aa(lp90
I29
aI1
aI1
aI2
aa(lp91
I38
aI5
aI3
aI1
aa(lp92
I29
aI1
aI1
aI1
aa(lp93
I32
aI2
aI3
aI3
aa(lp94
I49
aI5
aI8
aI8
aa(lp95
I35
aI0
aI3
aI0
aa(lp96
I38
aI2
aI5
aI1
aa(lp97
I44
aI2
aI5
aI5
aa(lp98
I34
aI3
aI1
aI1
aa(lp99
I30
aI0
aI1
aI0
aa(lp100
I36
aI0
aI1
aI2
aa(lp101
I45
aI7
aI5
aI6
aa(lp102
I68
aI4
aI9
aI8
aa(lp103
I20
aI1
aI1
aI2
aa(lp104
I52
aI4
aI10
aI15
aa(lp105
I48
aI2
aI2
aI3
aa(lp106
I24
aI2
aI1
aI1
aa(lp107
I23
aI3
aI1
aI2
aa(lp108
I55
aI4
aI2
aI1
aa(lp109
I85
aI9
aI9
aI9
aa(lp110
I64
aI0
aI1
aI2
aa(lp111
I30
aI10
aI6
aI1
aa(lp112
I28
aI2
aI5
aI4
aa(lp113
I36
aI2
aI1
aI2
aa(lp114
I69
aI6
aI3
aI2
aa(lp115
I36
aI8
aI3
aI3
aa(lp116
I35
aI2
aI5
aI10
aa(lp117
I22
aI1
aI4
aI4
aa(lp118
I35
aI0
aI0
aI0
aa(lp119
I41
aI3
aI3
aI3
aa(lp120
I31
aI0
aI2
aI4
aa(lp121
I20
aI1
aI3
aI4
aa(lp122
I57
aI2
aI2
aI1
aa(lp123
I18
aI2
aI3
aI3
aa(lp124
I25
aI0
aI1
aI2
aa(lp125
I44
aI0
aI3
aI3
aa(lp126
I29
aI5
aI1
aI0
aa(lp127
I37
aI1
aI1
aI1
aa(lp128
I38
aI2
aI0
aI0
aa(lp129
I44
aI1
aI1
aI2
aa(lp130
I48
aI5
aI2
aI3
aa(lp131
I22
aI0
aI1
aI1
aa(lp132
I56
aI3
aI2
aI2
aa(lp133
I44
aI0
aI1
aI2
aa(lp134
I49
aI4
aI3
aI3
aa(lp135
I41
aI4
aI3
aI3
aa(lp136
I71
aI8
aI9
aI5
aa(lp137
I26
aI4
aI3
aI4
aa(lp138
I37
aI5
aI3
aI1
aa(lp139
I64
aI3
aI4
aI2
aa(lp140
I37
aI6
aI1
aI1
aa(lp141
I55
aI21
aI17
aI18
aa(lp142
I30
aI1
aI7
aI6
aa(lp143
I23
aI1
aI3
aI3
aa(lp144
I52
aI10
aI7
aI5
aa(lp145
I51
aI1
aI0
aI0
aa(lp146
I31
aI0
aI0
aI0
aa(lp147
I41
aI15
aI8
aI1
aa(lp148
I40
aI4
aI2
aI2
aa(lp149
I54
aI4
aI5
aI4
aa(lp150
I162
aI7
aI25
aI37
aa(lp151
I20
aI1
aI1
aI2
aa(lp152
I105
aI6
aI6
aI7
aa(lp153
I60
aI1
aI10
aI10
aa(lp154
I27
aI1
aI2
aI2
aa(lp155
I56
aI6
aI2
aI2
aa(lp156
I40
aI2
aI1
aI1
aa(lp157
I76
aI2
aI1
aI1
aa(lp158
I35
aI0
aI6
aI7
aa(lp159
I28
aI2
aI4
aI8
aa(lp160
I38
aI0
aI0
aI0
aa(lp161
I52
aI3
aI1
aI1
aa(lp162
I37
aI5
aI1
aI1
aa(lp163
I39
aI9
aI10
aI11
aa(lp164
I61
aI7
aI7
aI8
aa(lp165
I47
aI0
aI1
aI1
aa(lp166
I43
aI3
aI4
aI6
aa(lp167
I32
aI2
aI3
aI2
aa(lp168
I38
aI1
aI0
aI0
aa(lp169
I45
aI1
aI3
aI3
aa(lp170
I71
aI0
aI0
aI0
aa(lp171
I98
aI11
aI1
aI0
aa(lp172
I37
aI2
aI3
aI2
aa(lp173
I67
aI4
aI1
aI1
aa(lp174
I44
aI3
aI2
aI2
aa(lp175
I41
aI9
aI3
aI2
aa(lp176
I31
aI7
aI2
aI1
aa(lp177
I35
aI7
aI6
aI2
aa(lp178
I16
aI1
aI0
aI0
aa(lp179
I46
aI1
aI2
aI4
aa(lp180
I-1
aI-1
aI-1
aI-1
aa(lp181
I43
aI3
aI5
aI9
aa(lp182
I32
aI2
aI3
aI2
aa(lp183
I54
aI6
aI3
aI3
aa(lp184
I30
aI2
aI1
aI2
aa(lp185
I33
aI1
aI0
aI0
aa(lp186
I30
aI1
aI5
aI5
aa(lp187
I50
aI6
aI6
aI4
aa(lp188
I20
aI4
aI1
aI2
aa(lp189
I66
aI3
aI1
aI0
aa(lp190
I21
aI5
aI1
aI2
aa(lp191
I33
aI0
aI0
aI0
aa(lp192
I31
aI4
aI0
aI0
aa(lp193
I42
aI4
aI0
aI0
aa(lp194
I37
aI11
aI1
aI1
aa(lp195
I31
aI8
aI3
aI2
aa(lp196
I69
aI4
aI8
aI6
aa(lp197
I25
aI3
aI5
aI7
aa(lp198
I18
aI1
aI1
aI2
aa(lp199
I42
aI5
aI0
aI0
aa(lp200
I27
aI2
aI1
aI2
aa(lp201
I27
aI5
aI3
aI5
aa(lp202
I35
aI9
aI5
aI5
aa(lp203
I36
aI1
aI1
aI0
aa(lp204
I49
aI4
aI0
aI0
aa(lp205
I28
aI8
aI3
aI4
aa(lp206
I55
aI1
aI1
aI1
aa(lp207
I60
aI2
aI4
aI4
aa(lp208
I36
aI2
aI1
aI1
aa(lp209
I27
aI3
aI3
aI6
aa(lp210
I30
aI1
aI1
aI1
aa(lp211
I78
aI5
aI4
aI3
aa(lp212
I65
aI1
aI4
aI3
aa(lp213
I38
aI0
aI1
aI1
aa(lp214
I49
aI4
aI4
aI2
aa(lp215
I29
aI1
aI2
aI3
aa(lp216
I34
aI2
aI5
aI5
aa(lp217
I39
aI1
aI2
aI2
aa(lp218
I67
aI4
aI0
aI0
aa(lp219
I38
aI3
aI3
aI4
aa(lp220
I27
aI0
aI0
aI0
aa(lp221
I40
aI4
aI3
aI2
aa(lp222
I63
aI5
aI6
aI3
aa(lp223
I52
aI5
aI9
aI8
aa(lp224
I54
aI0
aI6
aI4
aa(lp225
I46
aI3
aI1
aI0
aa(lp226
I54
aI12
aI8
aI7
aa(lp227
I62
aI4
aI5
aI2
aa(lp228
I11
aI0
aI1
aI2
aa(lp229
I31
aI1
aI0
aI0
aa(lp230
I25
aI0
aI0
aI0
aa(lp231
I51
aI10
aI4
aI5
aa(lp232
I42
aI0
aI1
aI2
aa(lp233
I55
aI3
aI0
aI0
aa(lp234
I16
aI0
aI7
aI14
aa(lp235
I40
aI1
aI0
aI0
aa(lp236
I40
aI7
aI2
aI1
aa(lp237
I31
aI2
aI2
aI3
aa(lp238
I74
aI1
aI1
aI1
aa(lp239
I20
aI0
aI1
aI2
aa(lp240
I45
aI0
aI1
aI0
aa(lp241
I29
aI2
aI2
aI3
aa(lp242
I75
aI1
aI7
aI7
aa(lp243
I79
aI1
aI1
aI0
aa(lp244
I41
aI1
aI1
aI2
aa(lp245
I29
aI1
aI2
aI3
aa(lp246
I58
aI9
aI9
aI11
aa(lp247
I60
aI4
aI4
aI5
aa(lp248
I56
aI2
aI0
aI0
aa(lp249
I41
aI8
aI1
aI1
aa(lp250
I67
aI8
aI2
aI2
aa(lp251
I26
aI6
aI2
aI3
aa(lp252
I38
aI4
aI1
aI2
aa(lp253
I48
aI1
aI0
aI0
aa(lp254
I35
aI6
aI7
aI6
aa(lp255
I28
aI4
aI3
aI4
aa(lp256
I28
aI1
aI3
aI2
aa(lp257
I44
aI2
aI4
aI5
aa(lp258
I60
aI12
aI3
aI2
aa(lp259
I43
aI1
aI0
aI0
aa(lp260
I41
aI0
aI0
aI0
aa(lp261
I35
aI3
aI3
aI0
aa(lp262
I41
aI4
aI10
aI14
aa(lp263
I27
aI1
aI1
aI0
aa(lp264
I36
aI2
aI7
aI10
aa(lp265
I20
aI2
aI1
aI2
aa(lp266
I37
aI6
aI14
aI12
aa(lp267
I25
aI2
aI6
aI11
aa(lp268
I34
aI0
aI3
aI3
aa(lp269
I28
aI1
aI3
aI3
aa(lp270
I57
aI1
aI1
aI0
aa(lp271
I52
aI5
aI6
aI6
aa(lp272
I31
aI0
aI6
aI9
aa(lp273
I44
aI5
aI3
aI1
aa(lp274
I46
aI2
aI1
aI1
aa(lp275
I37
aI1
aI1
aI2
aa(lp276
I92
aI0
aI0
aI0
aa(lp277
I49
aI4
aI0
aI0
aa(lp278
I22
aI0
aI0
aI0
aa(lp279
I28
aI4
aI3
aI3
aa(lp280
I31
aI4
aI0
aI0
aa(lp281
I46
aI2
aI4
aI5
aa(lp282
I32
aI5
aI3
aI4
aa(lp283
I26
aI1
aI1
aI1
aa(lp284
I54
aI0
aI1
aI2
aa(lp285
I25
aI2
aI1
aI2
aa(lp286
I43
aI6
aI2
aI1
aa(lp287
I37
aI8
aI2
aI2
aa(lp288
I64
aI13
aI1
aI1
aa(lp289
I85
aI0
aI0
aI0
aa(lp290
I19
aI1
aI2
aI2
aa(lp291
I28
aI1
aI6
aI10
aa(lp292
I34
aI7
aI9
aI13
aa(lp293
I47
aI4
aI9
aI10
aa(lp294
I25
aI6
aI2
aI4
aa(lp295
I36
aI5
aI6
aI6
aa(lp296
I22
aI0
aI1
aI2
aa(lp297
I56
aI9
aI4
aI2
aa(lp298
I34
aI0
aI2
aI2
aa(lp299
I40
aI4
aI0
aI0
aa(lp300
I42
aI1
aI2
aI1
aa(lp301
I38
aI6
aI5
aI6
aa(lp302
I53
aI2
aI2
aI1
aa(lp303
I35
aI1
aI1
aI2
aa(lp304
I46
aI4
aI6
aI3
aa(lp305
I33
aI1
aI1
aI0
aa(lp306
I27
aI1
aI1
aI1
aa(lp307
I31
aI0
aI0
aI0
aa(lp308
I44
aI2
aI1
aI1
aa(lp309
I27
aI2
aI1
aI1
aa(lp310
I25
aI0
aI0
aI0
aa(lp311
I24
aI1
aI1
aI2
aa(lp312
I27
aI2
aI3
aI5
aa(lp313
I37
aI2
aI0
aI0
aa(lp314
I48
aI5
aI0
aI0
aa(lp315
I57
aI8
aI3
aI6
aa(lp316
I60
aI5
aI5
aI8
aa(lp317
I28
aI2
aI1
aI0
aa(lp318
I25
aI1
aI1
aI1
aa(lp319
I43
aI1
aI6
aI8
aa(lp320
I35
aI1
aI5
aI10
aa(lp321
I30
aI0
aI1
aI0
aa(lp322
I26
aI0
aI0
aI0
aa(lp323
I27
aI1
aI5
aI4
aa(lp324
I38
aI8
aI2
aI2
aa(lp325
I50
aI5
aI3
aI3
aa(lp326
I27
aI5
aI3
aI6
aa(lp327
I35
aI2
aI1
aI0
aa(lp328
I52
aI6
aI5
aI5
aa(lp329
I41
aI2
aI0
aI0
aa(lp330
I31
aI3
aI1
aI1
aa(lp331
I22
aI4
aI0
aI0
aa(lp332
I27
aI3
aI4
aI5
aa(lp333
I41
aI1
aI0
aI0
aa(lp334
I41
aI0
aI2
aI2
aa(lp335
I39
aI1
aI1
aI1
aa(lp336
I30
aI6
aI3
aI4
aa(lp337
I42
aI0
aI0
aI0
aa(lp338
I27
aI2
aI4
aI5
aa(lp339
I36
aI3
aI4
aI4
aa(lp340
I54
aI7
aI6
aI6
aa(lp341
I29
aI3
aI0
aI0
aa(lp342
I31
aI8
aI3
aI6
aa(lp343
I23
aI0
aI0
aI0
aa(lp344
I29
aI1
aI1
aI1
aa(lp345
I96
aI14
aI10
aI10
aa(lp346
I41
aI0
aI5
aI9
aa(lp347
I17
aI0
aI0
aI0
aa(lp348
I29
aI1
aI0
aI0
aa(lp349
I57
aI0
aI0
aI0
aa(lp350
I31
aI0
aI10
aI12
aa(lp351
I18
aI0
aI1
aI2
aa(lp352
I89
aI12
aI4
aI7
aa(lp353
I41
aI1
aI3
aI3
aa(lp354
I20
aI0
aI0
aI0
aa(lp355
I45
aI0
aI12
aI16
aa(lp356
I99
aI6
aI3
aI3
aa(lp357
I20
aI0
aI1
aI2
aa(lp358
I116
aI7
aI7
aI8
aa(lp359
I36
aI0
aI0
aI0
aa(lp360
I46
aI8
aI15
aI20
aa(lp361
I37
aI2
aI2
aI0
aa(lp362
I42
aI1
aI3
aI4
aa(lp363
I40
aI2
aI3
aI3
aa(lp364
I53
aI4
aI5
aI9
aa(lp365
I109
aI8
aI1
aI1
aa(lp366
I25
aI3
aI4
aI5
aa(lp367
I31
aI8
aI2
aI2
aa(lp368
I53
aI8
aI6
aI2
aa(lp369
I27
aI1
aI0
aI0
aa(lp370
I66
aI11
aI4
aI0
aa(lp371
I23
aI1
aI1
aI2
aa(lp372
I37
aI0
aI2
aI4
aa(lp373
I29
aI1
aI2
aI0
aa(lp374
I26
aI5
aI11
aI15
aa(lp375
I106
aI7
aI5
aI7
aa(lp376
I20
aI1
aI2
aI2
aa(lp377
I29
aI0
aI0
aI0
aa(lp378
I20
aI0
aI0
aI0
aa(lp379
I29
aI1
aI0
aI0
aa(lp380
I25
aI0
aI0
aI0
aa(lp381
I34
aI5
aI8
aI8
aa(lp382
I24
aI7
aI6
aI7
aa(lp383
I33
aI0
aI2
aI1
aa(lp384
I28
aI1
aI1
aI2
aa(lp385
I57
aI4
aI5
aI6
aa(lp386
I38
aI3
aI2
aI3
aa(lp387
I19
aI0
aI1
aI1
aa(lp388
I41
aI6
aI9
aI7
aa(lp389
I42
aI8
aI5
aI6
aa(lp390
I28
aI6
aI0
aI0
aa(lp391
I57
aI15
aI8
aI11
aa(lp392
I30
aI0
aI1
aI2
aa(lp393
I28
aI0
aI0
aI0
aa(lp394
I25
aI4
aI5
aI5
aa(lp395
I41
aI2
aI2
aI2
aa(lp396
I30
aI0
aI0
aI0
aa(lp397
I38
aI3
aI1
aI1
aa(lp398
I27
aI0
aI3
aI6
aa(lp399
I35
aI7
aI5
aI3
aa(lp400
I35
aI3
aI4
aI5
aa(lp401
I24
aI3
aI2
aI2
aa(lp402
I60
aI9
aI15
aI8
aa(lp403
I42
aI11
aI5
aI7
aa(lp404
I31
aI1
aI0
aI0
aa(lp405
I53
aI2
aI3
aI3
aa(lp406
I27
aI5
aI1
aI1
aa(lp407
I24
aI1
aI2
aI2
aa(lp408
I41
aI7
aI1
aI1
aa(lp409
I37
aI2
aI0
aI0
aa(lp410
I25
aI2
aI7
aI8
aa(lp411
I41
aI6
aI6
aI7
aa(lp412
I57
aI6
aI0
aI0
aa(lp413
I43
aI4
aI2
aI3
aa(lp414
I23
aI3
aI4
aI0
aa(lp415
I37
aI0
aI2
aI4
aa(lp416
I52
aI6
aI7
aI7
aa(lp417
I35
aI4
aI6
aI8
aa(lp418
I50
aI1
aI2
aI2
aa(lp419
I29
aI2
aI0
aI0
aa(lp420
I41
aI0
aI0
aI0
aa(lp421
I43
aI3
aI1
aI1
aa(lp422
I50
aI2
aI3
aI3
aa(lp423
I41
aI3
aI5
aI6
aa(lp424
I69
aI4
aI2
aI2
aa(lp425
I51
aI2
aI5
aI5
aa(lp426
I29
aI4
aI4
aI4
aa(lp427
I23
aI1
aI3
aI3
aa(lp428
I42
aI1
aI0
aI0
aa(lp429
I14
aI0
aI0
aI0
aa(lp430
I33
aI0
aI2
aI2
aa(lp431
I33
aI1
aI1
aI1
aa(lp432
I21
aI2
aI2
aI2
aa(lp433
I100
aI6
aI4
aI3
aa(lp434
I27
aI0
aI5
aI10
aa(lp435
I22
aI0
aI2
aI4
aa(lp436
I22
aI5
aI3
aI3
aa(lp437
I37
aI0
aI0
aI0
aa(lp438
I60
aI4
aI1
aI1
aa(lp439
I37
aI2
aI0
aI0
aa(lp440
I31
aI0
aI0
aI0
aa(lp441
I26
aI1
aI4
aI6
aa(lp442
I30
aI4
aI5
aI4
aa(lp443
I29
aI1
aI4
aI7
aa(lp444
I52
aI9
aI6
aI7
aa(lp445
I43
aI9
aI10
aI10
aa(lp446
I24
aI1
aI1
aI2
aa(lp447
I19
aI1
aI2
aI4
aa(lp448
I61
aI4
aI2
aI3
aa(lp449
I25
aI2
aI8
aI11
aa(lp450
I45
aI3
aI4
aI3
aa(lp451
I34
aI0
aI3
aI6
aa(lp452
I30
aI2
aI3
aI2
aa(lp453
I38
aI8
aI7
aI7
aa(lp454
I50
aI2
aI4
aI4
aa(lp455
I30
aI0
aI1
aI1
aa(lp456
I48
aI2
aI3
aI2
aa(lp457
I-1
aI-1
aI-1
aI-1
aa(lp458
I44
aI3
aI4
aI8
aa(lp459
I16
aI1
aI1
aI2
aa(lp460
I48
aI2
aI5
aI5
aa(lp461
I27
aI3
aI1
aI2
aa(lp462
I41
aI2
aI1
aI2
aa(lp463
I65
aI4
aI4
aI4
aa(lp464
I41
aI3
aI1
aI1
aa(lp465
I28
aI2
aI0
aI0
aa(lp466
I38
aI2
aI3
aI3
aa(lp467
I26
aI8
aI3
aI1
aa(lp468
I27
aI2
aI0
aI0
aa(lp469
I54
aI3
aI0
aI0
aa(lp470
I53
aI4
aI0
aI0
aa(lp471
I29
aI0
aI0
aI0
aa(lp472
I59
aI5
aI5
aI10
aa(lp473
I47
aI4
aI5
aI5
aa(lp474
I17
aI2
aI6
aI12
aa(lp475
I45
aI1
aI1
aI1
aa(lp476
I23
aI4
aI4
aI5
aa(lp477
I41
aI0
aI0
aI0
aa(lp478
I29
aI2
aI1
aI1
aa(lp479
I27
aI3
aI1
aI1
aa(lp480
I40
aI4
aI4
aI2
aa(lp481
I46
aI3
aI0
aI0
aa(lp482
I22
aI0
aI1
aI2
aa(lp483
I41
aI0
aI3
aI6
aa(lp484
I25
aI2
aI0
aI0
aa(lp485
I93
aI0
aI1
aI2
aa(lp486
I29
aI1
aI1
aI1
aa(lp487
I42
aI0
aI1
aI2
aa(lp488
I31
aI2
aI3
aI3
aa(lp489
I48
aI0
aI1
aI2
aa(lp490
I54
aI6
aI4
aI7
aa(lp491
I45
aI10
aI6
aI8
aa(lp492
I23
aI0
aI1
aI2
aa(lp493
I32
aI2
aI10
aI15
aa(lp494
I32
aI6
aI1
aI1
aa(lp495
I45
aI9
aI8
aI13
aa(lp496
I33
aI0
aI1
aI1
aa(lp497
I39
aI5
aI6
aI10
aa(lp498
I41
aI6
aI5
aI6
aa(lp499
I44
aI2
aI2
aI2
aa(lp500
I46
aI9
aI8
aI4
aa(lp501
I51
aI1
aI2
aI2
aa(lp502
I69
aI8
aI2
aI2
aa(lp503
I48
aI17
aI6
aI5
aa(lp504
I47
aI3
aI2
aI1
aa(lp505
I39
aI2
aI2
aI2
aa(lp506
I10
aI0
aI0
aI0
aa(lp507
I47
aI2
aI1
aI1
aa(lp508
I49
aI6
aI8
aI8
aa(lp509
I13
aI0
aI5
aI10
aa(lp510
I23
aI3
aI4
aI8
aa(lp511
I66
aI21
aI9
aI12
aa(lp512
I42
aI3
aI4
aI5
aa(lp513
I25
aI0
aI1
aI2
aa(lp514
I37
aI2
aI1
aI2
aa(lp515
I45
aI4
aI6
aI5
aa(lp516
I68
aI1
aI0
aI0
aa(lp517
I33
aI7
aI2
aI2
aa(lp518
I21
aI1
aI2
aI3
aa(lp519
I66
aI0
aI0
aI0
aa(lp520
I42
aI5
aI5
aI5
aa(lp521
I37
aI1
aI2
aI3
aa(lp522
I27
aI4
aI3
aI3
aa(lp523
I31
aI4
aI1
aI1
aa(lp524
I44
aI9
aI1
aI1
aa(lp525
I48
aI5
aI1
aI1
aa(lp526
I37
aI2
aI1
aI0
aa(lp527
I55
aI5
aI3
aI3
aa(lp528
I75
aI25
aI8
aI7
aa(lp529
I28
aI3
aI7
aI9
aa(lp530
I51
aI6
aI5
aI4
aa(lp531
I55
aI3
aI2
aI2
aa(lp532
I45
aI7
aI12
aI5
aa(lp533
I55
aI8
aI3
aI3
aa(lp534
I64
aI1
aI3
aI2
aa(lp535
I55
aI3
aI3
aI4
aa(lp536
I24
aI1
aI2
aI2
aa(lp537
I26
aI0
aI0
aI0
aa(lp538
I57
aI1
aI0
aI0
aa(lp539
I50
aI0
aI1
aI1
aa(lp540
I38
aI8
aI5
aI6
aa(lp541
I57
aI1
aI0
aI0
aa(lp542
I30
aI1
aI1
aI0
aa(lp543
I39
aI1
aI3
aI3
aa(lp544
I38
aI2
aI5
aI4
aa(lp545
I27
aI0
aI0
aI0
aa(lp546
I30
aI2
aI5
aI8
aa(lp547
I25
aI2
aI4
aI1
aa(lp548
I30
aI2
aI1
aI0
aa(lp549
I102
aI6
aI6
aI4
aa(lp550
I45
aI1
aI1
aI0
aa(lp551
I35
aI1
aI6
aI6
aa(lp552
I19
aI0
aI1
aI2
aa(lp553
I34
aI3
aI1
aI1
aa(lp554
I44
aI10
aI3
aI6
aa(lp555
I48
aI1
aI2
aI2
aa(lp556
I37
aI7
aI5
aI3
aa(lp557
I38
aI3
aI3
aI3
aa(lp558
I45
aI2
aI2
aI4
aa(lp559
I20
aI3
aI4
aI5
aa(lp560
I28
aI3
aI5
aI5
aa(lp561
I62
aI11
aI3
aI3
aa(lp562
I13
aI1
aI0
aI0
aa(lp563
I34
aI1
aI1
aI0
aa(lp564
I36
aI4
aI2
aI4
aa(lp565
I48
aI4
aI2
aI0
aa(lp566
I37
aI1
aI4
aI4
aa(lp567
I36
aI3
aI1
aI1
aa(lp568
I36
aI3
aI2
aI2
aa(lp569
I35
aI6
aI6
aI2
aa(lp570
I41
aI4
aI8
aI10
aa(lp571
I35
aI5
aI2
aI2
aa(lp572
I30
aI6
aI2
aI4
aa(lp573
I32
aI5
aI7
aI7
aa(lp574
I32
aI7
aI12
aI16
aa(lp575
I35
aI2
aI1
aI2
aa(lp576
I22
aI2
aI2
aI4
aa(lp577
I37
aI9
aI4
aI4
aa(lp578
I42
aI0
aI0
aI0
aa(lp579
I24
aI6
aI0
aI0
aa(lp580
I30
aI0
aI1
aI2
aa(lp581
I71
aI1
aI1
aI2
aa(lp582
I31
aI1
aI2
aI4
aa(lp583
I27
aI0
aI0
aI0
aa(lp584
I34
aI3
aI4
aI2
aa(lp585
I29
aI4
aI1
aI2
aa(lp586
I44
aI5
aI3
aI0
aa(lp587
I55
aI2
aI0
aI0
aa(lp588
I14
aI4
aI2
aI4
aa(lp589
I62
aI10
aI10
aI10
aa(lp590
I36
aI5
aI5
aI5
aa(lp591
I27
aI2
aI4
aI3
aa(lp592
I49
aI3
aI4
aI6
aa(lp593
I30
aI2
aI1
aI0
aa(lp594
I31
aI1
aI1
aI0
aa(lp595
I45
aI6
aI3
aI3
aa(lp596
I89
aI4
aI15
aI16
aa(lp597
I33
aI3
aI4
aI4
aa(lp598
I28
aI0
aI0
aI0
aa(lp599
I40
aI11
aI4
aI4
aa(lp600
I41
aI4
aI0
aI0
aa(lp601
I45
aI6
aI6
aI5
aa(lp602
I41
aI5
aI4
aI5
aa(lp603
I30
aI2
aI2
aI1
aa(lp604
I28
aI1
aI1
aI1
aa(lp605
I25
aI1
aI0
aI0
aa(lp606
I30
aI1
aI3
aI5
aa(lp607
I45
aI2
aI1
aI2
aa(lp608
I63
aI7
aI2
aI0
aa(lp609
I36
aI1
aI1
aI0
aa(lp610
I57
aI7
aI11
aI11
aa(lp611
I45
aI1
aI4
aI4
aa(lp612
I23
aI0
aI1
aI2
aa(lp613
I35
aI3
aI0
aI0
aa(lp614
I67
aI2
aI2
aI3
aa(lp615
I53
aI3
aI0
aI0
aa(lp616
I42
aI2
aI3
aI4
aa(lp617
I49
aI9
aI11
aI8
aa(lp618
I33
aI1
aI0
aI0
aa(lp619
I48
aI3
aI4
aI4
aa(lp620
I37
aI2
aI1
aI2
aa(lp621
I41
aI3
aI3
aI3
aa(lp622
I48
aI9
aI9
aI10
aa(lp623
I32
aI5
aI6
aI11
aa(lp624
I41
aI5
aI4
aI3
aa(lp625
I46
aI4
aI7
aI7
aa(lp626
I29
aI3
aI3
aI3
aa(lp627
I33
aI5
aI0
aI0
aa(lp628
I58
aI1
aI4
aI3
aa(lp629
I31
aI8
aI6
aI2
aa(lp630
I46
aI0
aI1
aI0
aa(lp631
I33
aI0
aI0
aI0
aa(lp632
I46
aI4
aI2
aI2
aa(lp633
I24
aI0
aI0
aI0
aa(lp634
I34
aI13
aI4
aI4
aa(lp635
I65
aI10
aI1
aI0
aa(lp636
I45
aI0
aI1
aI0
aa(lp637
I42
aI5
aI6
aI6
aa(lp638
I24
aI1
aI6
aI6
aa(lp639
I23
aI1
aI2
aI4
aa(lp640
I32
aI0
aI0
aI0
aa(lp641
I36
aI0
aI1
aI2
aa(lp642
I68
aI2
aI1
aI1
aa(lp643
I52
aI0
aI1
aI2
aa(lp644
I30
aI4
aI0
aI0
aa(lp645
I27
aI0
aI6
aI12
aa(lp646
I47
aI1
aI3
aI6
aa(lp647
I28
aI2
aI9
aI10
aa(lp648
I42
aI0
aI0
aI0
aa(lp649
I36
aI8
aI1
aI1
aa(lp650
I38
aI1
aI1
aI2
aa(lp651
I44
aI12
aI4
aI4
aa(lp652
I28
aI4
aI5
aI5
aa(lp653
I29
aI2
aI2
aI0
aa(lp654
I60
aI0
aI0
aI0
aa(lp655
I35
aI0
aI4
aI7
aa(lp656
I36
aI1
aI1
aI0
aa(lp657
I41
aI6
aI8
aI7
aa(lp658
I42
aI0
aI1
aI1
aa(lp659
I28
aI3
aI3
aI3
aa(lp660
I51
aI17
aI10
aI13
aa(lp661
I24
aI1
aI0
aI0
aa(lp662
I28
aI0
aI1
aI2
aa(lp663
I33
aI0
aI2
aI2
aa(lp664
I91
aI2
aI0
aI0
aa(lp665
I29
aI2
aI1
aI1
aa(lp666
I34
aI2
aI3
aI4
aa(lp667
I46
aI8
aI7
aI7
aa(lp668
I32
aI2
aI2
aI2
aa(lp669
I27
aI2
aI10
aI18
aa(lp670
I51
aI14
aI3
aI0
aa(lp671
I49
aI8
aI6
aI4
aa(lp672
I51
aI2
aI2
aI4
aa(lp673
I53
aI6
aI4
aI3
aa(lp674
I58
aI1
aI2
aI2
aa(lp675
I33
aI6
aI0
aI0
aa(lp676
I29
aI0
aI2
aI4
aa(lp677
I51
aI10
aI3
aI3
aa(lp678
I30
aI24
aI7
aI13
aa(lp679
I48
aI14
aI3
aI2
aa(lp680
I28
aI0
aI1
aI2
aa(lp681
I25
aI1
aI1
aI2
aa(lp682
I34
aI0
aI1
aI2
aa(lp683
I51
aI5
aI0
aI0
aa(lp684
I34
aI1
aI1
aI1
aa(lp685
I39
aI6
aI4
aI4
aa(lp686
I28
aI3
aI2
aI4
aa(lp687
I27
aI1
aI4
aI6
aa(lp688
I22
aI0
aI0
aI0
aa(lp689
I21
aI0
aI0
aI0
aa(lp690
I22
aI0
aI0
aI0
aa(lp691
I24
aI1
aI1
aI2
aa(lp692
I23
aI2
aI1
aI0
aa(lp693
I36
aI6
aI14
aI12
aa(lp694
I25
aI0
aI0
aI0
aa(lp695
I53
aI3
aI7
aI7
aa(lp696
I87
aI7
aI11
aI11
aa(lp697
I46
aI2
aI2
aI2
aa(lp698
I30
aI0
aI2
aI4
aa(lp699
I39
aI1
aI2
aI0
aa(lp700
I20
aI1
aI2
aI3
aa(lp701
I48
aI1
aI1
aI1
aa(lp702
I33
aI1
aI1
aI1
aa(lp703
I28
aI2
aI4
aI6
aa(lp704
I35
aI2
aI1
aI2
aa(lp705
I32
aI6
aI4
aI4
aa(lp706
I43
aI2
aI3
aI3
aa(lp707
I53
aI4
aI1
aI1
aa(lp708
I55
aI8
aI2
aI0
aa(lp709
I33
aI5
aI2
aI2
aa(lp710
I27
aI1
aI4
aI6
aa(lp711
I32
aI6
aI3
aI3
aa(lp712
I39
aI3
aI5
aI3
aa(lp713
I32
aI1
aI0
aI0
aa(lp714
I25
aI0
aI0
aI0
aa(lp715
I27
aI1
aI1
aI0
aa(lp716
I23
aI0
aI4
aI4
aa(lp717
I43
aI2
aI3
aI1
aa(lp718
I42
aI3
aI3
aI3
aa(lp719
I49
aI5
aI1
aI1
aa(lp720
I21
aI1
aI6
aI12
aa(lp721
I29
aI2
aI3
aI1
aa(lp722
I23
aI1
aI3
aI3
aa(lp723
I47
aI8
aI5
aI5
aa(lp724
I32
aI2
aI0
aI0
aa(lp725
I29
aI0
aI1
aI2
aa(lp726
I31
aI3
aI2
aI2
aa(lp727
I30
aI0
aI0
aI0
aa(lp728
I55
aI4
aI0
aI0
aa(lp729
I50
aI4
aI1
aI0
aa(lp730
I54
aI1
aI1
aI0
aa(lp731
I44
aI6
aI2
aI4
aa(lp732
I32
aI0
aI0
aI0
aa(lp733
I39
aI1
aI1
aI2
aa(lp734
I38
aI2
aI1
aI2
aa(lp735
I31
aI5
aI4
aI6
aa(lp736
I32
aI0
aI3
aI5
aa(lp737
I42
aI12
aI4
aI0
aa(lp738
I46
aI1
aI3
aI2
aa(lp739
I34
aI1
aI0
aI0
aa(lp740
I31
aI0
aI0
aI0
aa(lp741
I28
aI3
aI3
aI3
aa(lp742
I30
aI2
aI7
aI14
aa(lp743
I48
aI3
aI3
aI5
aa(lp744
I28
aI1
aI0
aI0
aa(lp745
I36
aI0
aI3
aI1
aa(lp746
I43
aI3
aI0
aI0
aa(lp747
I46
aI6
aI5
aI6
aa(lp748
I32
aI1
aI1
aI1
aa(lp749
I38
aI2
aI2
aI4
aa(lp750
I82
aI4
aI2
aI2
aa(lp751
I28
aI0
aI0
aI0
aa(lp752
I47
aI4
aI0
aI0
aa(lp753
I44
aI5
aI6
aI7
aa(lp754
I42
aI2
aI2
aI2
aa(lp755
I38
aI2
aI0
aI0
aa(lp756
I25
aI0
aI1
aI2
aa(lp757
I27
aI2
aI1
aI2
aa(lp758
I31
aI0
aI1
aI1
aa(lp759
I30
aI10
aI2
aI3
aa(lp760
I56
aI2
aI2
aI4
aa(lp761
I29
aI0
aI2
aI2
aa(lp762
I31
aI2
aI8
aI8
aa(lp763
I32
aI2
aI4
aI4
aa(lp764
I26
aI6
aI9
aI8
aa(lp765
I53
aI2
aI5
aI6
aa(lp766
I35
aI1
aI4
aI5
aa(lp767
I28
aI4
aI2
aI4
aa(lp768
I47
aI4
aI7
aI4
aa(lp769
I29
aI0
aI1
aI2
aa(lp770
I31
aI2
aI2
aI4
aa(lp771
I21
aI3
aI3
aI5
aa(lp772
I61
aI8
aI9
aI11
aa(lp773
I26
aI0
aI0
aI0
aa(lp774
I27
aI2
aI1
aI2
aa(lp775
I19
aI0
aI0
aI0
aa(lp776
I54
aI4
aI1
aI2
aa(lp777
I40
aI5
aI1
aI1
aa(lp778
I44
aI0
aI7
aI8
aa(lp779
I53
aI4
aI0
aI0
aa(lp780
I36
aI1
aI3
aI2
aa(lp781
I61
aI6
aI3
aI0
aa(lp782
I55
aI7
aI7
aI2
aa(lp783
I47
aI1
aI2
aI2
aa(lp784
I116
aI2
aI3
aI1
aa(lp785
I19
aI3
aI3
aI4
aa(lp786
I44
aI4
aI5
aI4
aa(lp787
I36
aI1
aI2
aI3
aa(lp788
I49
aI5
aI6
aI10
aa(lp789
I55
aI2
aI0
aI0
aa(lp790
I46
aI9
aI5
aI4
aa(lp791
I33
aI1
aI0
aI0
aa(lp792
I41
aI0
aI1
aI1
aa(lp793
I23
aI0
aI1
aI2
aa(lp794
I28
aI6
aI8
aI10
aa(lp795
I23
aI0
aI1
aI1
aa(lp796
I46
aI4
aI5
aI7
aa(lp797
I36
aI2
aI3
aI3
aa(lp798
I51
aI5
aI7
aI8
aa(lp799
I46
aI4
aI0
aI0
aa(lp800
I46
aI1
aI3
aI3
aa(lp801
I53
aI3
aI1
aI1
aa(lp802
I45
aI2
aI0
aI0
aa(lp803
I59
aI7
aI6
aI7
aa(lp804
I37
aI1
aI0
aI0
aa(lp805
I25
aI1
aI3
aI2
aa(lp806
I35
aI1
aI2
aI0
aa(lp807
I63
aI4
aI4
aI4
aa(lp808
I34
aI3
aI3
aI4
aa(lp809
I58
aI1
aI2
aI2
aa(lp810
I20
aI2
aI3
aI6
aa(lp811
I32
aI4
aI1
aI1
aa(lp812
I39
aI1
aI2
aI1
aa(lp813
I27
aI5
aI4
aI5
aa(lp814
I29
aI10
aI2
aI3
aa(lp815
I27
aI2
aI1
aI0
aa(lp816
I61
aI14
aI9
aI9
aa(lp817
I39
aI0
aI1
aI2
aa(lp818
I39
aI2
aI2
aI2
aa(lp819
I39
aI0
aI2
aI4
aa(lp820
I37
aI2
aI0
aI0
aa(lp821
I37
aI3
aI6
aI5
aa(lp822
I21
aI3
aI0
aI0
aa(lp823
I49
aI5
aI5
aI5
aa(lp824
I42
aI1
aI3
aI2
aa(lp825
I68
aI2
aI3
aI3
aa(lp826
I44
aI4
aI1
aI0
aa(lp827
I28
aI3
aI1
aI1
aa(lp828
I57
aI2
aI5
aI4
aa(lp829
I25
aI2
aI1
aI1
aa(lp830
I19
aI2
aI0
aI0
aa(lp831
I27
aI3
aI3
aI4
aa(lp832
I34
aI1
aI1
aI1
aa(lp833
I27
aI3
aI5
aI4
aa(lp834
I40
aI3
aI6
aI7
aa(lp835
I47
aI5
aI3
aI3
aa(lp836
I54
aI16
aI14
aI13
aa(lp837
I28
aI0
aI1
aI0
aa(lp838
I34
aI2
aI1
aI0
aa(lp839
I60
aI2
aI1
aI1
aa(lp840
I42
aI4
aI8
aI11
aa(lp841
I41
aI4
aI1
aI2
aa(lp842
I25
aI1
aI2
aI2
aa(lp843
I38
aI9
aI1
aI1
aa(lp844
I36
aI2
aI0
aI0
aa(lp845
I44
aI2
aI1
aI2
aa(lp846
I52
aI7
aI2
aI4
aa(lp847
I34
aI11
aI4
aI5
aa(lp848
I25
aI0
aI1
aI2
aa(lp849
I52
aI4
aI6
aI6
aa(lp850
I41
aI0
aI0
aI0
aa(lp851
I28
aI7
aI2
aI2
aa(lp852
I34
aI4
aI2
aI0
aa(lp853
I17
aI1
aI2
aI3
aa(lp854
I20
aI0
aI2
aI3
aa(lp855
I25
aI0
aI4
aI8
aa(lp856
I29
aI0
aI1
aI1
aa(lp857
I34
aI1
aI1
aI1
aa(lp858
I30
aI2
aI1
aI0
aa(lp859
I57
aI10
aI7
aI9
aa(lp860
I71
aI3
aI0
aI0
aa(lp861
I20
aI1
aI2
aI4
aa(lp862
I30
aI1
aI0
aI0
aa(lp863
I60
aI1
aI2
aI2
aa(lp864
I30
aI1
aI0
aI0
aa(lp865
I27
aI3
aI3
aI6
aa(lp866
I48
aI1
aI0
aI0
aa(lp867
I34
aI0
aI0
aI0
aa(lp868
I42
aI1
aI2
aI4
aa(lp869
I21
aI0
aI1
aI2
aa(lp870
I18
aI0
aI0
aI0
aa(lp871
I19
aI2
aI3
aI6
aa(lp872
I23
aI7
aI3
aI6
aa(lp873
I34
aI1
aI0
aI0
aa(lp874
I42
aI1
aI0
aI0
aa(lp875
I57
aI5
aI3
aI4
aa(lp876
I46
aI1
aI2
aI2
aa(lp877
I64
aI2
aI3
aI4
aa(lp878
I29
aI1
aI1
aI2
aa(lp879
I50
aI7
aI5
aI4
aa(lp880
I37
aI3
aI7
aI6
aa(lp881
I23
aI2
aI1
aI2
aa(lp882
I38
aI5
aI6
aI2
aa(lp883
I35
aI2
aI1
aI2
aa(lp884
I32
aI1
aI4
aI1
aa(lp885
I28
aI3
aI4
aI5
aa(lp886
I46
aI8
aI2
aI3
aa(lp887
I58
aI3
aI1
aI2
aa(lp888
I85
aI3
aI1
aI2
aa(lp889
I35
aI1
aI0
aI0
aa(lp890
I35
aI1
aI1
aI0
aa(lp891
I29
aI1
aI1
aI1
aa(lp892
I37
aI1
aI1
aI1
aa(lp893
I39
aI0
aI4
aI5
aa(lp894
I18
aI0
aI0
aI0
aa(lp895
I37
aI0
aI2
aI3
aa(lp896
I50
aI2
aI0
aI0
aa(lp897
I50
aI9
aI13
aI13
aa(lp898
I23
aI2
aI1
aI2
aa(lp899
I39
aI4
aI2
aI1
aa(lp900
I35
aI0
aI7
aI8
aa(lp901
I39
aI5
aI2
aI1
aa(lp902
I111
aI4
aI0
aI0
aa(lp903
I36
aI2
aI2
aI3
aa(lp904
I41
aI2
aI2
aI2
aa(lp905
I36
aI0
aI3
aI4
aa(lp906
I36
aI0
aI1
aI2
aa(lp907
I30
aI1
aI1
aI0
aa(lp908
I26
aI3
aI2
aI2
aa(lp909
I38
aI2
aI5
aI5
aa(lp910
I38
aI3
aI2
aI0
aa(lp911
I41
aI0
aI3
aI2
aa(lp912
I31
aI0
aI0
aI0
aa(lp913
I63
aI2
aI1
aI2
aa(lp914
I39
aI5
aI2
aI2
aa(lp915
I47
aI3
aI0
aI0
aa(lp916
I41
aI2
aI2
aI2
aa(lp917
I34
aI2
aI1
aI2
aa(lp918
I42
aI2
aI2
aI0
aa(lp919
I25
aI3
aI7
aI8
aa(lp920
I21
aI0
aI1
aI1
aa(lp921
I51
aI0
aI0
aI0
aa(lp922
I35
aI4
aI4
aI4
aa(lp923
I30
aI1
aI1
aI2
aa(lp924
I30
aI1
aI1
aI1
aa(lp925
I20
aI1
aI1
aI2
aa(lp926
I30
aI4
aI0
aI0
aa(lp927
I31
aI8
aI3
aI4
aa(lp928
I46
aI3
aI5
aI9
aa(lp929
I45
aI2
aI1
aI2
aa(lp930
I48
aI10
aI4
aI0
aa(lp931
I55
aI4
aI0
aI0
aa(lp932
I42
aI6
aI5
aI8
aa(lp933
I43
aI4
aI6
aI6
aa(lp934
I64
aI1
aI4
aI4
aa(lp935
I49
aI0
aI0
aI0
aa(lp936
I26
aI0
aI1
aI1
aa(lp937
I34
aI3
aI2
aI2
aa(lp938
I55
aI0
aI0
aI0
aa(lp939
I34
aI0
aI1
aI2
aa(lp940
I55
aI11
aI6
aI6
aa(lp941
I35
aI2
aI2
aI2
aa(lp942
I24
aI3
aI3
aI3
aa(lp943
I18
aI0
aI2
aI2
aa(lp944
I37
aI4
aI2
aI1
aa(lp945
I57
aI16
aI23
aI14
aa(lp946
I25
aI0
aI1
aI2
aa(lp947
I31
aI1
aI1
aI2
aa(lp948
I31
aI0
aI0
aI0
aa(lp949
I60
aI2
aI4
aI4
aa(lp950
I27
aI2
aI0
aI0
aa(lp951
I22
aI4
aI3
aI6
aa(lp952
I94
aI5
aI0
aI0
aa(lp953
I53
aI4
aI2
aI2
aa(lp954
I41
aI2
aI1
aI1
aa(lp955
I29
aI4
aI2
aI3
aa(lp956
I42
aI0
aI1
aI1
aa(lp957
I50
aI0
aI0
aI0
aa(lp958
I49
aI4
aI9
aI6
aa(lp959
I40
aI0
aI0
aI0
aa(lp960
I38
aI0
aI1
aI2
aa(lp961
I30
aI2
aI2
aI1
aa(lp962
I23
aI2
aI4
aI4
aa(lp963
I59
aI2
aI1
aI2
aa(lp964
I88
aI1
aI1
aI1
aa(lp965
I31
aI0
aI1
aI2
aa(lp966
I54
aI1
aI0
aI0
aa(lp967
I71
aI11
aI8
aI8
aa(lp968
I29
aI2
aI2
aI3
aa(lp969
I41
aI0
aI1
aI1
aa(lp970
I24
aI0
aI0
aI0
aa(lp971
I45
aI4
aI2
aI1
aa(lp972
I34
aI4
aI2
aI2
aa(lp973
I65
aI2
aI2
aI3
aa(lp974
I36
aI1
aI0
aI0
aa(lp975
I38
aI2
aI0
aI0
aa(lp976
I56
aI6
aI0
aI0
aa(lp977
I70
aI0
aI18
aI17
aa(lp978
I79
aI1
aI0
aI0
aa(lp979
I37
aI5
aI0
aI0
aa(lp980
I36
aI4
aI2
aI0
aa(lp981
I21
aI1
aI2
aI2
aa(lp982
I35
aI2
aI3
aI4
aa(lp983
I43
aI2
aI3
aI3
aa(lp984
I28
aI5
aI4
aI2
aa(lp985
I81
aI5
aI3
aI3
aa(lp986
I53
aI1
aI4
aI3
aa(lp987
I34
aI1
aI1
aI1
aa(lp988
I45
aI4
aI1
aI1
aa(lp989
I64
aI2
aI1
aI1
aa(lp990
I42
aI5
aI3
aI2
aa(lp991
I16
aI0
aI0
aI0
aa(lp992
I21
aI4
aI5
aI5
aa(lp993
I42
aI4
aI10
aI7
aa(lp994
I49
aI15
aI8
aI5
aa(lp995
I74
aI1
aI0
aI0
aa(lp996
I33
aI1
aI1
aI0
aa(lp997
I28
aI1
aI1
aI2
aa(lp998
I36
aI2
aI1
aI1
aa(lp999
I38
aI2
aI2
aI1
aa(lp1000
I112
aI2
aI0
aI0
aa(lp1001
I30
aI6
aI12
aI13
aa(lp1002
I38
aI1
aI5
aI5
aa(lp1003
I59
aI4
aI2
aI3
aa(lp1004
I42
aI4
aI1
aI0
aa.